; Function Attrs: inlinehint mustprogress nounwind uwtable
define internal void @_ZN3gmx8internal14EnumIndexStoreIN12_GLOBAL__N_110VSitesTypeEED0Ev(ptr noundef nonnull align 8 dereferenceable(48) initializes((0, 8)) %0) unnamed_addr #7 align 2 personality ptr @__gxx_personality_v0 {
  store ptr getelementptr inbounds nuw inrange(-16, 56) (i8, ptr @_ZTVN3gmx8internal14EnumIndexStoreIN12_GLOBAL__N_110VSitesTypeEEE, i64 16), ptr %0, align 8, !tbaa !7
  %2 = getelementptr inbounds nuw i8, ptr %0, i64 8
  %3 = load ptr, ptr %2, align 8, !tbaa !261
  %.not.i.i.i.i = icmp eq ptr %3, null
  br i1 %.not.i.i.i.i, label %_ZN3gmx8internal14EnumIndexStoreIN12_GLOBAL__N_110VSitesTypeEED2Ev.exit, label %4

4:                                                ; preds = %1
  %5 = getelementptr inbounds nuw i8, ptr %0, i64 24
  %6 = load ptr, ptr %5, align 8, !tbaa !268
  %7 = ptrtoint ptr %6 to i64
  %8 = ptrtoint ptr %3 to i64
  %9 = sub i64 %7, %8
  tail call void @_ZdlPvm(ptr noundef nonnull %3, i64 noundef %9) #33
  br label %_ZN3gmx8internal14EnumIndexStoreIN12_GLOBAL__N_110VSitesTypeEED2Ev.exit

_ZN3gmx8internal14EnumIndexStoreIN12_GLOBAL__N_110VSitesTypeEED2Ev.exit: ; preds = %1, %4
  tail call void @_ZdlPvm(ptr noundef nonnull %0, i64 noundef 48) #33
  ret void
}